target datalayout = "e-m:e-p270:32:32-p271:32:32-p272:64:64-i64:64-i128:128-f80:128-n8:16:32:64-S128"
target triple = "x86_64-pc-linux-gnu"

@H5_libinit_g = external global i8, align 1
@H5_libterm_g = external global i8, align 1
@.str = private unnamed_addr constant [97 x i8] c"generated/home/dtcxzyw/WorkSpace/Projects/compilers/llvm-opt-benchmark/bench/hdf5/hdf5/src/H5O.c\00", align 1
@__func__.H5Oopen = private unnamed_addr constant [8 x i8] c"H5Oopen\00", align 1
@H5E_FUNC_g = external global i64, align 8
@H5E_CANTINIT_g = external global i64, align 8
@.str.1 = private unnamed_addr constant [30 x i8] c"library initialization failed\00", align 1
@H5E_CANTSET_g = external global i64, align 8
@.str.2 = private unnamed_addr constant [22 x i8] c"can't set API context\00", align 1
@H5E_OHDR_g = external global i64, align 8
@H5E_CANTOPENOBJ_g = external global i64, align 8
@.str.3 = private unnamed_addr constant [36 x i8] c"unable to synchronously open object\00", align 1

; Function Attrs: nounwind uwtable
define i64 @H5Oopen(i64 noundef %0, ptr noundef %1, i64 noundef %2) #0 {
  %4 = alloca i64, align 8
  %5 = alloca ptr, align 8
  %6 = alloca i64, align 8
  %7 = alloca i64, align 8
  %8 = alloca i8, align 1
  %9 = alloca i8, align 1
  store i64 %0, ptr %4, align 8
  store ptr %1, ptr %5, align 8
  store i64 %2, ptr %6, align 8
  store i64 -1, ptr %7, align 8
  store i8 0, ptr %8, align 1
  store i8 0, ptr %9, align 1
  %10 = load i8, ptr @H5_libinit_g, align 1
  %11 = trunc i8 %10 to i1
  br i1 %11, label %16, label %12

12:                                               ; preds = %3
  %13 = load i8, ptr @H5_libterm_g, align 1
  %14 = trunc i8 %13 to i1
  %15 = xor i1 %14, true
  br label %16

16:                                               ; preds = %12, %3
  %17 = phi i1 [ false, %3 ], [ %15, %12 ]
  %18 = xor i1 %17, true
  %19 = xor i1 %18, true
  %20 = zext i1 %19 to i32
  %21 = sext i32 %20 to i64
  %22 = icmp ne i64 %21, 0
  br i1 %22, label %23, label %47

23:                                               ; preds = %16
  %24 = call i32 @H5_init_library()
  %25 = icmp slt i32 %24, 0
  %26 = xor i1 %25, true
  %27 = xor i1 %26, true
  %28 = zext i1 %27 to i32
  %29 = sext i32 %28 to i64
  %30 = icmp ne i64 %29, 0
  br i1 %30, label %31, label %46

31:                                               ; preds = %23
  br label %32

32:                                               ; preds = %31
  br label %33

33:                                               ; preds = %32
  br label %34

34:                                               ; preds = %33
  %35 = load i64, ptr @H5E_FUNC_g, align 8
  %36 = load i64, ptr @H5E_CANTINIT_g, align 8
  %37 = call i32 (ptr, ptr, i32, i64, i64, ptr, ...) @H5E_printf_stack(ptr noundef @.str, ptr noundef @__func__.H5Oopen, i32 noundef 154, i64 noundef %35, i64 noundef %36, ptr noundef @.str.1)
  br label %38

38:                                               ; preds = %34
  store i8 1, ptr %9, align 1
  %39 = load i8, ptr %9, align 1
  %40 = trunc i8 %39 to i1
  %41 = zext i1 %40 to i8
  store i8 %41, ptr %9, align 1
  br label %42

42:                                               ; preds = %38
  br label %43

43:                                               ; preds = %42
  store i64 -1, ptr %7, align 8
  br label %94

44:                                               ; No predecessors!
  br label %45

45:                                               ; preds = %44
  br label %46

46:                                               ; preds = %45, %23
  br label %47

47:                                               ; preds = %46, %16
  %48 = call i32 @H5CX_push()
  %49 = icmp slt i32 %48, 0
  %50 = xor i1 %49, true
  %51 = xor i1 %50, true
  %52 = zext i1 %51 to i32
  %53 = sext i32 %52 to i64
  %54 = icmp ne i64 %53, 0
  br i1 %54, label %55, label %70

55:                                               ; preds = %47
  br label %56

56:                                               ; preds = %55
  br label %57

57:                                               ; preds = %56
  br label %58

58:                                               ; preds = %57
  %59 = load i64, ptr @H5E_FUNC_g, align 8
  %60 = load i64, ptr @H5E_CANTSET_g, align 8
  %61 = call i32 (ptr, ptr, i32, i64, i64, ptr, ...) @H5E_printf_stack(ptr noundef @.str, ptr noundef @__func__.H5Oopen, i32 noundef 154, i64 noundef %59, i64 noundef %60, ptr noundef @.str.2)
  br label %62

62:                                               ; preds = %58
  store i8 1, ptr %9, align 1
  %63 = load i8, ptr %9, align 1
  %64 = trunc i8 %63 to i1
  %65 = zext i1 %64 to i8
  store i8 %65, ptr %9, align 1
  br label %66

66:                                               ; preds = %62
  br label %67

67:                                               ; preds = %66
  store i64 -1, ptr %7, align 8
  br label %94

68:                                               ; No predecessors!
  br label %69

69:                                               ; preds = %68
  br label %71

70:                                               ; preds = %47
  store i8 1, ptr %8, align 1
  br label %71

71:                                               ; preds = %70, %69
  %72 = call i32 @H5E_clear_stack()
  %73 = load i64, ptr %4, align 8
  %74 = load ptr, ptr %5, align 8
  %75 = load i64, ptr %6, align 8
  %76 = call i64 @H5O__open_api_common(i64 noundef %73, ptr noundef %74, i64 noundef %75, ptr noundef null, ptr noundef null)
  store i64 %76, ptr %7, align 8
  %77 = icmp slt i64 %76, 0
  br i1 %77, label %78, label %93

78:                                               ; preds = %71
  br label %79

79:                                               ; preds = %78
  br label %80

80:                                               ; preds = %79
  br label %81

81:                                               ; preds = %80
  %82 = load i64, ptr @H5E_OHDR_g, align 8
  %83 = load i64, ptr @H5E_CANTOPENOBJ_g, align 8
  %84 = call i32 (ptr, ptr, i32, i64, i64, ptr, ...) @H5E_printf_stack(ptr noundef @.str, ptr noundef @__func__.H5Oopen, i32 noundef 158, i64 noundef %82, i64 noundef %83, ptr noundef @.str.3)
  br label %85

85:                                               ; preds = %81
  store i8 1, ptr %9, align 1
  %86 = load i8, ptr %9, align 1
  %87 = trunc i8 %86 to i1
  %88 = zext i1 %87 to i8
  store i8 %88, ptr %9, align 1
  br label %89

89:                                               ; preds = %85
  br label %90

90:                                               ; preds = %89
  store i64 -1, ptr %7, align 8
  br label %94

91:                                               ; No predecessors!
  br label %92

92:                                               ; preds = %91
  br label %93

93:                                               ; preds = %92, %71
  br label %94

94:                                               ; preds = %93, %90, %67, %43
  %95 = load i8, ptr %8, align 1
  %96 = trunc i8 %95 to i1
  %97 = xor i1 %96, true
  %98 = xor i1 %97, true
  %99 = zext i1 %98 to i32
  %100 = sext i32 %99 to i64
  %101 = icmp ne i64 %100, 0
  br i1 %101, label %102, label %104

102:                                              ; preds = %94
  %103 = call i32 @H5CX_pop(i1 noundef zeroext true)
  store i8 0, ptr %8, align 1
  br label %104

104:                                              ; preds = %102, %94
  %105 = load i8, ptr %9, align 1
  %106 = trunc i8 %105 to i1
  %107 = xor i1 %106, true
  %108 = xor i1 %107, true
  %109 = zext i1 %108 to i32
  %110 = sext i32 %109 to i64
  %111 = icmp ne i64 %110, 0
  br i1 %111, label %112, label %114

112:                                              ; preds = %104
  %113 = call i32 @H5E_dump_api_stack()
  br label %114

114:                                              ; preds = %112, %104
  %115 = load i64, ptr %7, align 8
  ret i64 %115
}